target datalayout = "e-m:e-p270:32:32-p271:32:32-p272:64:64-i64:64-i128:128-f80:128-n8:16:32:64-S128"
target triple = "x86_64-pc-linux-gnu"

%struct.AVHWFramesContext = type { ptr, ptr, ptr, ptr, ptr, ptr, ptr, i32, i32, i32, i32, i32 }
%struct.AVFrame = type { [8 x ptr], [8 x i32], ptr, i32, i32, i32, i32, i32, %struct.AVRational, i64, i64, %struct.AVRational, i32, ptr, i32, i32, [8 x ptr], ptr, i32, ptr, i32, i32, i32, i32, i32, i32, i32, i64, ptr, i32, ptr, ptr, i64, i64, i64, i64, ptr, %struct.AVChannelLayout, i64 }
%struct.AVRational = type { i32, i32 }
%struct.AVChannelLayout = type { i32, i32, %union.anon.2, ptr }
%union.anon.2 = type { i64 }

; Function Attrs: nounwind uwtable
define internal i32 @vaapi_transfer_data_to(ptr noundef %0, ptr noundef %1, ptr noundef %2) #0 {
  %4 = alloca i32, align 4
  %5 = alloca ptr, align 8
  %6 = alloca ptr, align 8
  %7 = alloca ptr, align 8
  %8 = alloca ptr, align 8
  %9 = alloca i32, align 4
  %10 = alloca i32, align 4
  store ptr %0, ptr %5, align 8, !tbaa !97
  store ptr %1, ptr %6, align 8, !tbaa !143
  store ptr %2, ptr %7, align 8, !tbaa !143
  call void @llvm.lifetime.start.p0(i64 8, ptr %8) #10
  call void @llvm.lifetime.start.p0(i64 4, ptr %9) #10
  %11 = load ptr, ptr %7, align 8, !tbaa !143
  %12 = getelementptr inbounds nuw %struct.AVFrame, ptr %11, i32 0, i32 3
  %13 = load i32, ptr %12, align 8, !tbaa !153
  %14 = load ptr, ptr %5, align 8, !tbaa !97
  %15 = getelementptr inbounds nuw %struct.AVHWFramesContext, ptr %14, i32 0, i32 10
  %16 = load i32, ptr %15, align 4, !tbaa !152
  %17 = icmp sgt i32 %13, %16
  br i1 %17, label %26, label %18

18:                                               ; preds = %3
  %19 = load ptr, ptr %7, align 8, !tbaa !143
  %20 = getelementptr inbounds nuw %struct.AVFrame, ptr %19, i32 0, i32 4
  %21 = load i32, ptr %20, align 4, !tbaa !155
  %22 = load ptr, ptr %5, align 8, !tbaa !97
  %23 = getelementptr inbounds nuw %struct.AVHWFramesContext, ptr %22, i32 0, i32 11
  %24 = load i32, ptr %23, align 8, !tbaa !154
  %25 = icmp sgt i32 %21, %24
  br i1 %25, label %26, label %27

26:                                               ; preds = %18, %3
  store i32 -22, ptr %4, align 4
  store i32 1, ptr %10, align 4
  br label %65

27:                                               ; preds = %18
  %28 = call ptr @av_frame_alloc()
  store ptr %28, ptr %8, align 8, !tbaa !143
  %29 = load ptr, ptr %8, align 8, !tbaa !143
  %30 = icmp ne ptr %29, null
  br i1 %30, label %32, label %31

31:                                               ; preds = %27
  store i32 -12, ptr %4, align 4
  store i32 1, ptr %10, align 4
  br label %65

32:                                               ; preds = %27
  %33 = load ptr, ptr %7, align 8, !tbaa !143
  %34 = getelementptr inbounds nuw %struct.AVFrame, ptr %33, i32 0, i32 6
  %35 = load i32, ptr %34, align 4, !tbaa !145
  %36 = load ptr, ptr %8, align 8, !tbaa !143
  %37 = getelementptr inbounds nuw %struct.AVFrame, ptr %36, i32 0, i32 6
  store i32 %35, ptr %37, align 4, !tbaa !145
  %38 = load ptr, ptr %5, align 8, !tbaa !97
  %39 = load ptr, ptr %8, align 8, !tbaa !143
  %40 = load ptr, ptr %6, align 8, !tbaa !143
  %41 = call i32 @vaapi_map_frame(ptr noundef %38, ptr noundef %39, ptr noundef %40, i32 noundef 6)
  store i32 %41, ptr %9, align 4, !tbaa !13
  %42 = load i32, ptr %9, align 4, !tbaa !13
  %43 = icmp ne i32 %42, 0
  br i1 %43, label %44, label %45

44:                                               ; preds = %32
  br label %63

45:                                               ; preds = %32
  %46 = load ptr, ptr %7, align 8, !tbaa !143
  %47 = getelementptr inbounds nuw %struct.AVFrame, ptr %46, i32 0, i32 3
  %48 = load i32, ptr %47, align 8, !tbaa !153
  %49 = load ptr, ptr %8, align 8, !tbaa !143
  %50 = getelementptr inbounds nuw %struct.AVFrame, ptr %49, i32 0, i32 3
  store i32 %48, ptr %50, align 8, !tbaa !153
  %51 = load ptr, ptr %7, align 8, !tbaa !143
  %52 = getelementptr inbounds nuw %struct.AVFrame, ptr %51, i32 0, i32 4
  %53 = load i32, ptr %52, align 4, !tbaa !155
  %54 = load ptr, ptr %8, align 8, !tbaa !143
  %55 = getelementptr inbounds nuw %struct.AVFrame, ptr %54, i32 0, i32 4
  store i32 %53, ptr %55, align 4, !tbaa !155
  %56 = load ptr, ptr %8, align 8, !tbaa !143
  %57 = load ptr, ptr %7, align 8, !tbaa !143
  %58 = call i32 @av_frame_copy(ptr noundef %56, ptr noundef %57)
  store i32 %58, ptr %9, align 4, !tbaa !13
  %59 = load i32, ptr %9, align 4, !tbaa !13
  %60 = icmp ne i32 %59, 0
  br i1 %60, label %61, label %62

61:                                               ; preds = %45
  br label %63

62:                                               ; preds = %45
  store i32 0, ptr %9, align 4, !tbaa !13
  br label %63

63:                                               ; preds = %62, %61, %44
  call void @av_frame_free(ptr noundef %8)
  %64 = load i32, ptr %9, align 4, !tbaa !13
  store i32 %64, ptr %4, align 4
  store i32 1, ptr %10, align 4
  br label %65

65:                                               ; preds = %63, %31, %26
  call void @llvm.lifetime.end.p0(i64 4, ptr %9) #10
  call void @llvm.lifetime.end.p0(i64 8, ptr %8) #10
  %66 = load i32, ptr %4, align 4
  ret i32 %66
}