; Function Attrs: nounwind uwtable
define internal i32 @vaapi_transfer_data_to(ptr noundef %0, ptr noundef %1, ptr noundef %2) #0 {
  %4 = alloca ptr, align 8
  call void @llvm.lifetime.start.p0(i64 8, ptr nonnull %4) #11
  %5 = getelementptr inbounds nuw i8, ptr %2, i64 104
  %6 = load i32, ptr %5, align 8, !tbaa !123
  %7 = getelementptr inbounds nuw i8, ptr %0, i64 68
  %8 = load i32, ptr %7, align 4, !tbaa !122
  %9 = icmp sgt i32 %6, %8
  br i1 %9, label %30, label %10

10:                                               ; preds = %3
  %11 = getelementptr inbounds nuw i8, ptr %2, i64 108
  %12 = load i32, ptr %11, align 4, !tbaa !125
  %13 = getelementptr inbounds nuw i8, ptr %0, i64 72
  %14 = load i32, ptr %13, align 8, !tbaa !124
  %15 = icmp sgt i32 %12, %14
  br i1 %15, label %30, label %16

16:                                               ; preds = %10
  %17 = tail call ptr @av_frame_alloc() #11
  store ptr %17, ptr %4, align 8, !tbaa !129
  %.not = icmp eq ptr %17, null
  br i1 %.not, label %30, label %18

18:                                               ; preds = %16
  %19 = getelementptr inbounds nuw i8, ptr %2, i64 116
  %20 = load i32, ptr %19, align 4, !tbaa !113
  %21 = getelementptr inbounds nuw i8, ptr %17, i64 116
  store i32 %20, ptr %21, align 4, !tbaa !113
  %22 = tail call fastcc i32 @vaapi_map_frame(ptr noundef nonnull %0, ptr noundef nonnull %17, ptr noundef %1, i32 noundef 6)
  %.not16 = icmp eq i32 %22, 0
  br i1 %.not16, label %23, label %29

23:                                               ; preds = %18
  %24 = load i32, ptr %5, align 8, !tbaa !123
  %25 = getelementptr inbounds nuw i8, ptr %17, i64 104
  store i32 %24, ptr %25, align 8, !tbaa !123
  %26 = load i32, ptr %11, align 4, !tbaa !125
  %27 = getelementptr inbounds nuw i8, ptr %17, i64 108
  store i32 %26, ptr %27, align 4, !tbaa !125
  %28 = tail call i32 @av_frame_copy(ptr noundef nonnull %17, ptr noundef nonnull %2) #11
  br label %29

29:                                               ; preds = %23, %18
  %.0 = phi i32 [ %22, %18 ], [ %28, %23 ]
  call void @av_frame_free(ptr noundef nonnull %4) #11
  br label %30

30:                                               ; preds = %16, %3, %10, %29
  %.013 = phi i32 [ %.0, %29 ], [ -22, %10 ], [ -22, %3 ], [ -12, %16 ]
  call void @llvm.lifetime.end.p0(i64 8, ptr nonnull %4) #11
  ret i32 %.013
}